; Function Attrs: nounwind uwtable
define range(i64 -2147483648, 2147483648) i64 @bufferevent_read(ptr noundef readonly captures(none) %0, ptr noundef %1, i64 noundef %2) local_unnamed_addr #0 {
  %4 = getelementptr inbounds nuw i8, ptr %0, i64 256
  %5 = load ptr, ptr %4, align 8
  %6 = tail call i32 @evbuffer_remove(ptr noundef %5, ptr noundef %1, i64 noundef %2) #7
  %7 = icmp eq i32 %6, -1
  %narrow = select i1 %7, i32 0, i32 %6
  %.0 = sext i32 %narrow to i64
  ret i64 %.0
}